target datalayout = "e-m:e-p270:32:32-p271:32:32-p272:64:64-i64:64-i128:128-f80:128-n8:16:32:64-S128"
target triple = "x86_64-pc-linux-gnu"

%"struct.pxrInternal_v0_24__pxrReserved__::TfStreamDouble" = type { double }
%"class.pxrInternal_v0_24__pxrReserved__::GfRange1d" = type { double, double }

@.str.2 = private unnamed_addr constant [4 x i8] c"...\00", align 1

; Function Attrs: mustprogress nounwind uwtable
define linkonce_odr void @_ZN32pxrInternal_v0_24__pxrReserved__14TfStreamDoubleC2Ed(ptr noundef nonnull align 8 dereferenceable(8) %0, double noundef %1) unnamed_addr #2 comdat align 2 {
  %3 = alloca ptr, align 8
  %4 = alloca double, align 8
  store ptr %0, ptr %3, align 8
  store double %1, ptr %4, align 8
  %5 = load ptr, ptr %3, align 8
  %6 = getelementptr inbounds nuw %"struct.pxrInternal_v0_24__pxrReserved__::TfStreamDouble", ptr %5, i32 0, i32 0
  %7 = load double, ptr %4, align 8
  store double %7, ptr %6, align 8
  ret void
}

; Function Attrs: mustprogress nounwind uwtable
define linkonce_odr noundef double @_ZNK32pxrInternal_v0_24__pxrReserved__9GfRange1d6GetMaxEv(ptr noundef nonnull align 8 dereferenceable(16) %0) #2 comdat align 2 {
  %2 = alloca ptr, align 8
  store ptr %0, ptr %2, align 8
  %3 = load ptr, ptr %2, align 8
  %4 = getelementptr inbounds nuw %"class.pxrInternal_v0_24__pxrReserved__::GfRange1d", ptr %3, i32 0, i32 1
  %5 = load double, ptr %4, align 8
  ret double %5
}

; Function Attrs: mustprogress uwtable
define linkonce_odr double @_ZN32pxrInternal_v0_24__pxrReserved__17Gf_OstreamHelperPEd(double noundef %0) #0 comdat {
  %2 = alloca %"struct.pxrInternal_v0_24__pxrReserved__::TfStreamDouble", align 8
  %3 = alloca double, align 8
  store double %0, ptr %3, align 8
  %4 = load double, ptr %3, align 8
  call void @_ZN32pxrInternal_v0_24__pxrReserved__14TfStreamDoubleC2Ed(ptr noundef nonnull align 8 dereferenceable(8) %2, double noundef %4)
  %5 = getelementptr inbounds nuw %"struct.pxrInternal_v0_24__pxrReserved__::TfStreamDouble", ptr %2, i32 0, i32 0
  %6 = load double, ptr %5, align 8
  ret double %6
}

; Function Attrs: mustprogress nounwind uwtable
define linkonce_odr noundef double @_ZNK32pxrInternal_v0_24__pxrReserved__9GfRange1d6GetMinEv(ptr noundef nonnull align 8 dereferenceable(16) %0) #2 comdat align 2 {
  %2 = alloca ptr, align 8
  store ptr %0, ptr %2, align 8
  %3 = load ptr, ptr %2, align 8
  %4 = getelementptr inbounds nuw %"class.pxrInternal_v0_24__pxrReserved__::GfRange1d", ptr %3, i32 0, i32 0
  %5 = load double, ptr %4, align 8
  ret double %5
}

; Function Attrs: mustprogress uwtable
define noundef nonnull align 8 dereferenceable(8) ptr @_ZN32pxrInternal_v0_24__pxrReserved__lsERSoRKNS_9GfRange1dE(ptr noundef nonnull align 8 dereferenceable(8) %0, ptr noundef nonnull align 8 dereferenceable(16) %1) #0 {
  %3 = alloca ptr, align 8
  %4 = alloca ptr, align 8
  %5 = alloca %"struct.pxrInternal_v0_24__pxrReserved__::TfStreamDouble", align 8
  %6 = alloca %"struct.pxrInternal_v0_24__pxrReserved__::TfStreamDouble", align 8
  store ptr %0, ptr %3, align 8
  store ptr %1, ptr %4, align 8
  %7 = load ptr, ptr %3, align 8
  %8 = call noundef nonnull align 8 dereferenceable(8) ptr @_ZStlsISt11char_traitsIcEERSt13basic_ostreamIcT_ES5_c(ptr noundef nonnull align 8 dereferenceable(8) %7, i8 noundef signext 91)
  %9 = load ptr, ptr %4, align 8
  %10 = call noundef double @_ZNK32pxrInternal_v0_24__pxrReserved__9GfRange1d6GetMinEv(ptr noundef nonnull align 8 dereferenceable(16) %9)
  %11 = call double @_ZN32pxrInternal_v0_24__pxrReserved__17Gf_OstreamHelperPEd(double noundef %10)
  %12 = getelementptr inbounds nuw %"struct.pxrInternal_v0_24__pxrReserved__::TfStreamDouble", ptr %5, i32 0, i32 0
  store double %11, ptr %12, align 8
  %13 = getelementptr inbounds nuw %"struct.pxrInternal_v0_24__pxrReserved__::TfStreamDouble", ptr %5, i32 0, i32 0
  %14 = load double, ptr %13, align 8
  %15 = call noundef nonnull align 8 dereferenceable(8) ptr @_ZN32pxrInternal_v0_24__pxrReserved__lsERSoNS_14TfStreamDoubleE(ptr noundef nonnull align 8 dereferenceable(8) %8, double %14)
  %16 = call noundef nonnull align 8 dereferenceable(8) ptr @_ZStlsISt11char_traitsIcEERSt13basic_ostreamIcT_ES5_PKc(ptr noundef nonnull align 8 dereferenceable(8) %15, ptr noundef @.str.2)
  %17 = load ptr, ptr %4, align 8
  %18 = call noundef double @_ZNK32pxrInternal_v0_24__pxrReserved__9GfRange1d6GetMaxEv(ptr noundef nonnull align 8 dereferenceable(16) %17)
  %19 = call double @_ZN32pxrInternal_v0_24__pxrReserved__17Gf_OstreamHelperPEd(double noundef %18)
  %20 = getelementptr inbounds nuw %"struct.pxrInternal_v0_24__pxrReserved__::TfStreamDouble", ptr %6, i32 0, i32 0
  store double %19, ptr %20, align 8
  %21 = getelementptr inbounds nuw %"struct.pxrInternal_v0_24__pxrReserved__::TfStreamDouble", ptr %6, i32 0, i32 0
  %22 = load double, ptr %21, align 8
  %23 = call noundef nonnull align 8 dereferenceable(8) ptr @_ZN32pxrInternal_v0_24__pxrReserved__lsERSoNS_14TfStreamDoubleE(ptr noundef nonnull align 8 dereferenceable(8) %16, double %22)
  %24 = call noundef nonnull align 8 dereferenceable(8) ptr @_ZStlsISt11char_traitsIcEERSt13basic_ostreamIcT_ES5_c(ptr noundef nonnull align 8 dereferenceable(8) %23, i8 noundef signext 93)
  ret ptr %24
}